target datalayout = "e-m:e-p270:32:32-p271:32:32-p272:64:64-i64:64-i128:128-f80:128-n8:16:32:64-S128"
target triple = "x86_64-pc-linux-gnu"

%struct.LogicalRepRelMapEntry = type { %struct.LogicalRepRelation, i8, i32, ptr, ptr, i8, i32, i8, i64 }
%struct.LogicalRepRelation = type { i32, ptr, ptr, i32, ptr, ptr, i8, i8, ptr }
%struct.ApplyErrorCallbackArg = type { i32, ptr, i32, i32, i64, ptr }

@.str.30 = private unnamed_addr constant [76 x i8] c"processing remote data for replication origin \22%s\22 during message type \22%s\22\00", align 1
@.str.31 = private unnamed_addr constant [94 x i8] c"processing remote data for replication origin \22%s\22 during message type \22%s\22 in transaction %u\00", align 1
@.str.32 = private unnamed_addr constant [113 x i8] c"processing remote data for replication origin \22%s\22 during message type \22%s\22 in transaction %u, finished at %X/%X\00", align 1
@.str.33 = private unnamed_addr constant [134 x i8] c"processing remote data for replication origin \22%s\22 during message type \22%s\22 for replication target relation \22%s.%s\22 in transaction %u\00", align 1
@.str.34 = private unnamed_addr constant [153 x i8] c"processing remote data for replication origin \22%s\22 during message type \22%s\22 for replication target relation \22%s.%s\22 in transaction %u, finished at %X/%X\00", align 1
@.str.35 = private unnamed_addr constant [146 x i8] c"processing remote data for replication origin \22%s\22 during message type \22%s\22 for replication target relation \22%s.%s\22 column \22%s\22 in transaction %u\00", align 1
@.str.36 = private unnamed_addr constant [165 x i8] c"processing remote data for replication origin \22%s\22 during message type \22%s\22 for replication target relation \22%s.%s\22 column \22%s\22 in transaction %u, finished at %X/%X\00", align 1
@apply_error_callback_arg = internal global { i32, [4 x i8], ptr, i32, i32, i64, ptr } { i32 0, [4 x i8] zeroinitializer, ptr null, i32 -1, i32 0, i64 0, ptr null }, align 8
@replorigin_session_origin_lsn = external global i64, align 8
@replorigin_session_origin_timestamp = external global i64, align 8
@replorigin_session_origin = external global i16, align 2

; Function Attrs: nounwind uwtable
define internal void @replorigin_reset(i32 noundef %0, i64 noundef %1) #0 {
  %3 = alloca i32, align 4
  %4 = alloca i64, align 8
  store i32 %0, ptr %3, align 4
  store i64 %1, ptr %4, align 8
  store i16 0, ptr @replorigin_session_origin, align 2
  store i64 0, ptr @replorigin_session_origin_lsn, align 8
  store i64 0, ptr @replorigin_session_origin_timestamp, align 8
  ret void
}

; Function Attrs: nounwind uwtable
define dso_local void @apply_error_callback(ptr noundef %0) #0 {
  %2 = alloca ptr, align 8
  %3 = alloca ptr, align 8
  %4 = alloca i32, align 4
  %5 = alloca i32, align 4
  %6 = alloca i32, align 4
  %7 = alloca i32, align 4
  %8 = alloca i32, align 4
  store ptr %0, ptr %2, align 8
  call void @llvm.lifetime.start.p0(i64 8, ptr %3) #12
  store ptr @apply_error_callback_arg, ptr %3, align 8
  call void @llvm.lifetime.start.p0(i64 4, ptr %4) #12
  %9 = load i32, ptr @apply_error_callback_arg, align 8
  %10 = icmp eq i32 %9, 0
  br i1 %10, label %11, label %12

11:                                               ; preds = %1
  store i32 1, ptr %5, align 4
  br label %249

12:                                               ; preds = %1
  %13 = call i32 @geterrlevel()
  store i32 %13, ptr %4, align 4
  %14 = load i32, ptr %4, align 4
  %15 = icmp sge i32 %14, 21
  br i1 %15, label %16, label %17

16:                                               ; preds = %12
  call void @replorigin_reset(i32 noundef 0, i64 noundef 0)
  br label %17

17:                                               ; preds = %16, %12
  %18 = load ptr, ptr %3, align 8
  %19 = getelementptr inbounds nuw %struct.ApplyErrorCallbackArg, ptr %18, i32 0, i32 1
  %20 = load ptr, ptr %19, align 8
  %21 = icmp eq ptr %20, null
  br i1 %21, label %22, label %82

22:                                               ; preds = %17
  %23 = load ptr, ptr %3, align 8
  %24 = getelementptr inbounds nuw %struct.ApplyErrorCallbackArg, ptr %23, i32 0, i32 3
  %25 = load i32, ptr %24, align 4
  %26 = icmp ne i32 %25, 0
  br i1 %26, label %37, label %27

27:                                               ; preds = %22
  %28 = call i32 @set_errcontext_domain(ptr noundef null)
  %29 = load ptr, ptr %3, align 8
  %30 = getelementptr inbounds nuw %struct.ApplyErrorCallbackArg, ptr %29, i32 0, i32 5
  %31 = load ptr, ptr %30, align 8
  %32 = load ptr, ptr %3, align 8
  %33 = getelementptr inbounds nuw %struct.ApplyErrorCallbackArg, ptr %32, i32 0, i32 0
  %34 = load i32, ptr %33, align 8
  %35 = call ptr @logicalrep_message_type(i32 noundef %34)
  %36 = call i32 (ptr, ...) @errcontext_msg(ptr noundef @.str.30, ptr noundef %31, ptr noundef %35)
  br label %81

37:                                               ; preds = %22
  %38 = load ptr, ptr %3, align 8
  %39 = getelementptr inbounds nuw %struct.ApplyErrorCallbackArg, ptr %38, i32 0, i32 4
  %40 = load i64, ptr %39, align 8
  %41 = icmp eq i64 %40, 0
  br i1 %41, label %42, label %55

42:                                               ; preds = %37
  %43 = call i32 @set_errcontext_domain(ptr noundef null)
  %44 = load ptr, ptr %3, align 8
  %45 = getelementptr inbounds nuw %struct.ApplyErrorCallbackArg, ptr %44, i32 0, i32 5
  %46 = load ptr, ptr %45, align 8
  %47 = load ptr, ptr %3, align 8
  %48 = getelementptr inbounds nuw %struct.ApplyErrorCallbackArg, ptr %47, i32 0, i32 0
  %49 = load i32, ptr %48, align 8
  %50 = call ptr @logicalrep_message_type(i32 noundef %49)
  %51 = load ptr, ptr %3, align 8
  %52 = getelementptr inbounds nuw %struct.ApplyErrorCallbackArg, ptr %51, i32 0, i32 3
  %53 = load i32, ptr %52, align 4
  %54 = call i32 (ptr, ...) @errcontext_msg(ptr noundef @.str.31, ptr noundef %46, ptr noundef %50, i32 noundef %53)
  br label %80

55:                                               ; preds = %37
  %56 = call i32 @set_errcontext_domain(ptr noundef null)
  %57 = load ptr, ptr %3, align 8
  %58 = getelementptr inbounds nuw %struct.ApplyErrorCallbackArg, ptr %57, i32 0, i32 5
  %59 = load ptr, ptr %58, align 8
  %60 = load ptr, ptr %3, align 8
  %61 = getelementptr inbounds nuw %struct.ApplyErrorCallbackArg, ptr %60, i32 0, i32 0
  %62 = load i32, ptr %61, align 8
  %63 = call ptr @logicalrep_message_type(i32 noundef %62)
  %64 = load ptr, ptr %3, align 8
  %65 = getelementptr inbounds nuw %struct.ApplyErrorCallbackArg, ptr %64, i32 0, i32 3
  %66 = load i32, ptr %65, align 4
  br label %67

67:                                               ; preds = %55
  br label %68

68:                                               ; preds = %67
  br label %69

69:                                               ; preds = %68
  store i32 1, ptr %6, align 4
  %70 = load ptr, ptr %3, align 8
  %71 = getelementptr inbounds nuw %struct.ApplyErrorCallbackArg, ptr %70, i32 0, i32 4
  %72 = load i64, ptr %71, align 8
  %73 = lshr i64 %72, 32
  %74 = trunc i64 %73 to i32
  %75 = load ptr, ptr %3, align 8
  %76 = getelementptr inbounds nuw %struct.ApplyErrorCallbackArg, ptr %75, i32 0, i32 4
  %77 = load i64, ptr %76, align 8
  %78 = trunc i64 %77 to i32
  %79 = call i32 (ptr, ...) @errcontext_msg(ptr noundef @.str.32, ptr noundef %59, ptr noundef %63, i32 noundef %66, i32 noundef %74, i32 noundef %78)
  br label %80

80:                                               ; preds = %69, %42
  br label %81

81:                                               ; preds = %80, %27
  br label %248

82:                                               ; preds = %17
  %83 = load ptr, ptr %3, align 8
  %84 = getelementptr inbounds nuw %struct.ApplyErrorCallbackArg, ptr %83, i32 0, i32 2
  %85 = load i32, ptr %84, align 8
  %86 = icmp slt i32 %85, 0
  br i1 %86, label %87, label %155

87:                                               ; preds = %82
  %88 = load ptr, ptr %3, align 8
  %89 = getelementptr inbounds nuw %struct.ApplyErrorCallbackArg, ptr %88, i32 0, i32 4
  %90 = load i64, ptr %89, align 8
  %91 = icmp eq i64 %90, 0
  br i1 %91, label %92, label %117

92:                                               ; preds = %87
  %93 = call i32 @set_errcontext_domain(ptr noundef null)
  %94 = load ptr, ptr %3, align 8
  %95 = getelementptr inbounds nuw %struct.ApplyErrorCallbackArg, ptr %94, i32 0, i32 5
  %96 = load ptr, ptr %95, align 8
  %97 = load ptr, ptr %3, align 8
  %98 = getelementptr inbounds nuw %struct.ApplyErrorCallbackArg, ptr %97, i32 0, i32 0
  %99 = load i32, ptr %98, align 8
  %100 = call ptr @logicalrep_message_type(i32 noundef %99)
  %101 = load ptr, ptr %3, align 8
  %102 = getelementptr inbounds nuw %struct.ApplyErrorCallbackArg, ptr %101, i32 0, i32 1
  %103 = load ptr, ptr %102, align 8
  %104 = getelementptr inbounds nuw %struct.LogicalRepRelMapEntry, ptr %103, i32 0, i32 0
  %105 = getelementptr inbounds nuw %struct.LogicalRepRelation, ptr %104, i32 0, i32 1
  %106 = load ptr, ptr %105, align 8
  %107 = load ptr, ptr %3, align 8
  %108 = getelementptr inbounds nuw %struct.ApplyErrorCallbackArg, ptr %107, i32 0, i32 1
  %109 = load ptr, ptr %108, align 8
  %110 = getelementptr inbounds nuw %struct.LogicalRepRelMapEntry, ptr %109, i32 0, i32 0
  %111 = getelementptr inbounds nuw %struct.LogicalRepRelation, ptr %110, i32 0, i32 2
  %112 = load ptr, ptr %111, align 8
  %113 = load ptr, ptr %3, align 8
  %114 = getelementptr inbounds nuw %struct.ApplyErrorCallbackArg, ptr %113, i32 0, i32 3
  %115 = load i32, ptr %114, align 4
  %116 = call i32 (ptr, ...) @errcontext_msg(ptr noundef @.str.33, ptr noundef %96, ptr noundef %100, ptr noundef %106, ptr noundef %112, i32 noundef %115)
  br label %154

117:                                              ; preds = %87
  %118 = call i32 @set_errcontext_domain(ptr noundef null)
  %119 = load ptr, ptr %3, align 8
  %120 = getelementptr inbounds nuw %struct.ApplyErrorCallbackArg, ptr %119, i32 0, i32 5
  %121 = load ptr, ptr %120, align 8
  %122 = load ptr, ptr %3, align 8
  %123 = getelementptr inbounds nuw %struct.ApplyErrorCallbackArg, ptr %122, i32 0, i32 0
  %124 = load i32, ptr %123, align 8
  %125 = call ptr @logicalrep_message_type(i32 noundef %124)
  %126 = load ptr, ptr %3, align 8
  %127 = getelementptr inbounds nuw %struct.ApplyErrorCallbackArg, ptr %126, i32 0, i32 1
  %128 = load ptr, ptr %127, align 8
  %129 = getelementptr inbounds nuw %struct.LogicalRepRelMapEntry, ptr %128, i32 0, i32 0
  %130 = getelementptr inbounds nuw %struct.LogicalRepRelation, ptr %129, i32 0, i32 1
  %131 = load ptr, ptr %130, align 8
  %132 = load ptr, ptr %3, align 8
  %133 = getelementptr inbounds nuw %struct.ApplyErrorCallbackArg, ptr %132, i32 0, i32 1
  %134 = load ptr, ptr %133, align 8
  %135 = getelementptr inbounds nuw %struct.LogicalRepRelMapEntry, ptr %134, i32 0, i32 0
  %136 = getelementptr inbounds nuw %struct.LogicalRepRelation, ptr %135, i32 0, i32 2
  %137 = load ptr, ptr %136, align 8
  %138 = load ptr, ptr %3, align 8
  %139 = getelementptr inbounds nuw %struct.ApplyErrorCallbackArg, ptr %138, i32 0, i32 3
  %140 = load i32, ptr %139, align 4
  br label %141

141:                                              ; preds = %117
  br label %142

142:                                              ; preds = %141
  br label %143

143:                                              ; preds = %142
  store i32 1, ptr %7, align 4
  %144 = load ptr, ptr %3, align 8
  %145 = getelementptr inbounds nuw %struct.ApplyErrorCallbackArg, ptr %144, i32 0, i32 4
  %146 = load i64, ptr %145, align 8
  %147 = lshr i64 %146, 32
  %148 = trunc i64 %147 to i32
  %149 = load ptr, ptr %3, align 8
  %150 = getelementptr inbounds nuw %struct.ApplyErrorCallbackArg, ptr %149, i32 0, i32 4
  %151 = load i64, ptr %150, align 8
  %152 = trunc i64 %151 to i32
  %153 = call i32 (ptr, ...) @errcontext_msg(ptr noundef @.str.34, ptr noundef %121, ptr noundef %125, ptr noundef %131, ptr noundef %137, i32 noundef %140, i32 noundef %148, i32 noundef %152)
  br label %154

154:                                              ; preds = %143, %92
  br label %247

155:                                              ; preds = %82
  %156 = load ptr, ptr %3, align 8
  %157 = getelementptr inbounds nuw %struct.ApplyErrorCallbackArg, ptr %156, i32 0, i32 4
  %158 = load i64, ptr %157, align 8
  %159 = icmp eq i64 %158, 0
  br i1 %159, label %160, label %197

160:                                              ; preds = %155
  %161 = call i32 @set_errcontext_domain(ptr noundef null)
  %162 = load ptr, ptr %3, align 8
  %163 = getelementptr inbounds nuw %struct.ApplyErrorCallbackArg, ptr %162, i32 0, i32 5
  %164 = load ptr, ptr %163, align 8
  %165 = load ptr, ptr %3, align 8
  %166 = getelementptr inbounds nuw %struct.ApplyErrorCallbackArg, ptr %165, i32 0, i32 0
  %167 = load i32, ptr %166, align 8
  %168 = call ptr @logicalrep_message_type(i32 noundef %167)
  %169 = load ptr, ptr %3, align 8
  %170 = getelementptr inbounds nuw %struct.ApplyErrorCallbackArg, ptr %169, i32 0, i32 1
  %171 = load ptr, ptr %170, align 8
  %172 = getelementptr inbounds nuw %struct.LogicalRepRelMapEntry, ptr %171, i32 0, i32 0
  %173 = getelementptr inbounds nuw %struct.LogicalRepRelation, ptr %172, i32 0, i32 1
  %174 = load ptr, ptr %173, align 8
  %175 = load ptr, ptr %3, align 8
  %176 = getelementptr inbounds nuw %struct.ApplyErrorCallbackArg, ptr %175, i32 0, i32 1
  %177 = load ptr, ptr %176, align 8
  %178 = getelementptr inbounds nuw %struct.LogicalRepRelMapEntry, ptr %177, i32 0, i32 0
  %179 = getelementptr inbounds nuw %struct.LogicalRepRelation, ptr %178, i32 0, i32 2
  %180 = load ptr, ptr %179, align 8
  %181 = load ptr, ptr %3, align 8
  %182 = getelementptr inbounds nuw %struct.ApplyErrorCallbackArg, ptr %181, i32 0, i32 1
  %183 = load ptr, ptr %182, align 8
  %184 = getelementptr inbounds nuw %struct.LogicalRepRelMapEntry, ptr %183, i32 0, i32 0
  %185 = getelementptr inbounds nuw %struct.LogicalRepRelation, ptr %184, i32 0, i32 4
  %186 = load ptr, ptr %185, align 8
  %187 = load ptr, ptr %3, align 8
  %188 = getelementptr inbounds nuw %struct.ApplyErrorCallbackArg, ptr %187, i32 0, i32 2
  %189 = load i32, ptr %188, align 8
  %190 = sext i32 %189 to i64
  %191 = getelementptr inbounds ptr, ptr %186, i64 %190
  %192 = load ptr, ptr %191, align 8
  %193 = load ptr, ptr %3, align 8
  %194 = getelementptr inbounds nuw %struct.ApplyErrorCallbackArg, ptr %193, i32 0, i32 3
  %195 = load i32, ptr %194, align 4
  %196 = call i32 (ptr, ...) @errcontext_msg(ptr noundef @.str.35, ptr noundef %164, ptr noundef %168, ptr noundef %174, ptr noundef %180, ptr noundef %192, i32 noundef %195)
  br label %246

197:                                              ; preds = %155
  %198 = call i32 @set_errcontext_domain(ptr noundef null)
  %199 = load ptr, ptr %3, align 8
  %200 = getelementptr inbounds nuw %struct.ApplyErrorCallbackArg, ptr %199, i32 0, i32 5
  %201 = load ptr, ptr %200, align 8
  %202 = load ptr, ptr %3, align 8
  %203 = getelementptr inbounds nuw %struct.ApplyErrorCallbackArg, ptr %202, i32 0, i32 0
  %204 = load i32, ptr %203, align 8
  %205 = call ptr @logicalrep_message_type(i32 noundef %204)
  %206 = load ptr, ptr %3, align 8
  %207 = getelementptr inbounds nuw %struct.ApplyErrorCallbackArg, ptr %206, i32 0, i32 1
  %208 = load ptr, ptr %207, align 8
  %209 = getelementptr inbounds nuw %struct.LogicalRepRelMapEntry, ptr %208, i32 0, i32 0
  %210 = getelementptr inbounds nuw %struct.LogicalRepRelation, ptr %209, i32 0, i32 1
  %211 = load ptr, ptr %210, align 8
  %212 = load ptr, ptr %3, align 8
  %213 = getelementptr inbounds nuw %struct.ApplyErrorCallbackArg, ptr %212, i32 0, i32 1
  %214 = load ptr, ptr %213, align 8
  %215 = getelementptr inbounds nuw %struct.LogicalRepRelMapEntry, ptr %214, i32 0, i32 0
  %216 = getelementptr inbounds nuw %struct.LogicalRepRelation, ptr %215, i32 0, i32 2
  %217 = load ptr, ptr %216, align 8
  %218 = load ptr, ptr %3, align 8
  %219 = getelementptr inbounds nuw %struct.ApplyErrorCallbackArg, ptr %218, i32 0, i32 1
  %220 = load ptr, ptr %219, align 8
  %221 = getelementptr inbounds nuw %struct.LogicalRepRelMapEntry, ptr %220, i32 0, i32 0
  %222 = getelementptr inbounds nuw %struct.LogicalRepRelation, ptr %221, i32 0, i32 4
  %223 = load ptr, ptr %222, align 8
  %224 = load ptr, ptr %3, align 8
  %225 = getelementptr inbounds nuw %struct.ApplyErrorCallbackArg, ptr %224, i32 0, i32 2
  %226 = load i32, ptr %225, align 8
  %227 = sext i32 %226 to i64
  %228 = getelementptr inbounds ptr, ptr %223, i64 %227
  %229 = load ptr, ptr %228, align 8
  %230 = load ptr, ptr %3, align 8
  %231 = getelementptr inbounds nuw %struct.ApplyErrorCallbackArg, ptr %230, i32 0, i32 3
  %232 = load i32, ptr %231, align 4
  br label %233

233:                                              ; preds = %197
  br label %234

234:                                              ; preds = %233
  br label %235

235:                                              ; preds = %234
  store i32 1, ptr %8, align 4
  %236 = load ptr, ptr %3, align 8
  %237 = getelementptr inbounds nuw %struct.ApplyErrorCallbackArg, ptr %236, i32 0, i32 4
  %238 = load i64, ptr %237, align 8
  %239 = lshr i64 %238, 32
  %240 = trunc i64 %239 to i32
  %241 = load ptr, ptr %3, align 8
  %242 = getelementptr inbounds nuw %struct.ApplyErrorCallbackArg, ptr %241, i32 0, i32 4
  %243 = load i64, ptr %242, align 8
  %244 = trunc i64 %243 to i32
  %245 = call i32 (ptr, ...) @errcontext_msg(ptr noundef @.str.36, ptr noundef %201, ptr noundef %205, ptr noundef %211, ptr noundef %217, ptr noundef %229, i32 noundef %232, i32 noundef %240, i32 noundef %244)
  br label %246

246:                                              ; preds = %235, %160
  br label %247

247:                                              ; preds = %246, %154
  br label %248

248:                                              ; preds = %247, %81
  store i32 0, ptr %5, align 4
  br label %249

249:                                              ; preds = %248, %11
  call void @llvm.lifetime.end.p0(i64 4, ptr %4) #12
  call void @llvm.lifetime.end.p0(i64 8, ptr %3) #12
  %250 = load i32, ptr %5, align 4
  switch i32 %250, label %252 [
    i32 0, label %251
    i32 1, label %251
  ]

251:                                              ; preds = %249, %249
  ret void

252:                                              ; preds = %249
  unreachable
}