; Function Attrs: nounwind uwtable
define dso_local void @apply_error_callback(ptr readnone captures(none) %0) #0 {
  %2 = load i32, ptr @apply_error_callback_arg.0, align 8
  %3 = icmp eq i32 %2, 0
  br i1 %3, label %75, label %4

4:                                                ; preds = %1
  %5 = tail call i32 @geterrlevel() #17
  %6 = icmp sgt i32 %5, 20
  br i1 %6, label %7, label %8

7:                                                ; preds = %4
  store i16 0, ptr @replorigin_session_origin, align 2
  store i64 0, ptr @replorigin_session_origin_lsn, align 8
  store i64 0, ptr @replorigin_session_origin_timestamp, align 8
  br label %8

8:                                                ; preds = %7, %4
  %9 = load ptr, ptr @apply_error_callback_arg.1, align 8
  %10 = icmp eq ptr %9, null
  br i1 %10, label %11, label %35

11:                                               ; preds = %8
  %12 = load i32, ptr @apply_error_callback_arg.3, align 4
  %.not = icmp eq i32 %12, 0
  br i1 %.not, label %13, label %19

13:                                               ; preds = %11
  %14 = tail call i32 @set_errcontext_domain(ptr noundef null) #17
  %15 = load ptr, ptr @apply_error_callback_arg.5, align 8
  %16 = load i32, ptr @apply_error_callback_arg.0, align 8
  %17 = tail call ptr @logicalrep_message_type(i32 noundef %16) #17
  %18 = tail call i32 (ptr, ...) @errcontext_msg(ptr noundef nonnull @.str.30, ptr noundef %15, ptr noundef %17) #17
  br label %75

19:                                               ; preds = %11
  %20 = load i64, ptr @apply_error_callback_arg.4, align 8
  %21 = icmp eq i64 %20, 0
  %22 = tail call i32 @set_errcontext_domain(ptr noundef null) #17
  %23 = load ptr, ptr @apply_error_callback_arg.5, align 8
  %24 = load i32, ptr @apply_error_callback_arg.0, align 8
  %25 = tail call ptr @logicalrep_message_type(i32 noundef %24) #17
  %26 = load i32, ptr @apply_error_callback_arg.3, align 4
  br i1 %21, label %27, label %29

27:                                               ; preds = %19
  %28 = tail call i32 (ptr, ...) @errcontext_msg(ptr noundef nonnull @.str.31, ptr noundef %23, ptr noundef %25, i32 noundef %26) #17
  br label %75

29:                                               ; preds = %19
  %30 = load i64, ptr @apply_error_callback_arg.4, align 8
  %31 = lshr i64 %30, 32
  %32 = trunc nuw i64 %31 to i32
  %33 = trunc i64 %30 to i32
  %34 = tail call i32 (ptr, ...) @errcontext_msg(ptr noundef nonnull @.str.32, ptr noundef %23, ptr noundef %25, i32 noundef %26, i32 noundef %32, i32 noundef %33) #17
  br label %75

35:                                               ; preds = %8
  %36 = load i32, ptr @apply_error_callback_arg.2, align 8
  %37 = icmp slt i32 %36, 0
  %38 = load i64, ptr @apply_error_callback_arg.4, align 8
  %39 = icmp eq i64 %38, 0
  %40 = tail call i32 @set_errcontext_domain(ptr noundef null) #17
  %41 = load ptr, ptr @apply_error_callback_arg.5, align 8
  %42 = load i32, ptr @apply_error_callback_arg.0, align 8
  %43 = tail call ptr @logicalrep_message_type(i32 noundef %42) #17
  %44 = load ptr, ptr @apply_error_callback_arg.1, align 8
  %45 = getelementptr inbounds nuw i8, ptr %44, i64 8
  %46 = load ptr, ptr %45, align 8
  %47 = getelementptr inbounds nuw i8, ptr %44, i64 16
  %48 = load ptr, ptr %47, align 8
  br i1 %37, label %49, label %59

49:                                               ; preds = %35
  %50 = load i32, ptr @apply_error_callback_arg.3, align 4
  br i1 %39, label %51, label %53

51:                                               ; preds = %49
  %52 = tail call i32 (ptr, ...) @errcontext_msg(ptr noundef nonnull @.str.33, ptr noundef %41, ptr noundef %43, ptr noundef %46, ptr noundef %48, i32 noundef %50) #17
  br label %75

53:                                               ; preds = %49
  %54 = load i64, ptr @apply_error_callback_arg.4, align 8
  %55 = lshr i64 %54, 32
  %56 = trunc nuw i64 %55 to i32
  %57 = trunc i64 %54 to i32
  %58 = tail call i32 (ptr, ...) @errcontext_msg(ptr noundef nonnull @.str.34, ptr noundef %41, ptr noundef %43, ptr noundef %46, ptr noundef %48, i32 noundef %50, i32 noundef %56, i32 noundef %57) #17
  br label %75

59:                                               ; preds = %35
  %60 = getelementptr inbounds nuw i8, ptr %44, i64 32
  %61 = load ptr, ptr %60, align 8
  %62 = load i32, ptr @apply_error_callback_arg.2, align 8
  %63 = sext i32 %62 to i64
  %64 = getelementptr inbounds ptr, ptr %61, i64 %63
  %65 = load ptr, ptr %64, align 8
  %66 = load i32, ptr @apply_error_callback_arg.3, align 4
  br i1 %39, label %67, label %69

67:                                               ; preds = %59
  %68 = tail call i32 (ptr, ...) @errcontext_msg(ptr noundef nonnull @.str.35, ptr noundef %41, ptr noundef %43, ptr noundef %46, ptr noundef %48, ptr noundef %65, i32 noundef %66) #17
  br label %75

69:                                               ; preds = %59
  %70 = load i64, ptr @apply_error_callback_arg.4, align 8
  %71 = lshr i64 %70, 32
  %72 = trunc nuw i64 %71 to i32
  %73 = trunc i64 %70 to i32
  %74 = tail call i32 (ptr, ...) @errcontext_msg(ptr noundef nonnull @.str.36, ptr noundef %41, ptr noundef %43, ptr noundef %46, ptr noundef %48, ptr noundef %65, i32 noundef %66, i32 noundef %72, i32 noundef %73) #17
  br label %75

75:                                               ; preds = %27, %29, %13, %67, %69, %51, %53, %1
  ret void
}